; Function Attrs: mustprogress nofree nounwind willreturn memory(readwrite, inaccessiblemem: write) uwtable
define internal { double, double } @_ZL14wag3_s_inverse5PJ_XYP8PJconsts(double %0, double %1, ptr noundef readonly captures(none) %2) #4 {
  %4 = getelementptr inbounds nuw i8, ptr %2, i64 88
  %5 = load ptr, ptr %4, align 8, !tbaa !3
  %6 = load double, ptr %5, align 8, !tbaa !39
  %7 = fmul double %1, 0x3FE5555555555555
  %8 = tail call double @cos(double noundef %7) #6, !tbaa !38
  %9 = fmul double %6, %8
  %10 = fdiv double %0, %9
  %.fca.0.insert = insertvalue { double, double } poison, double %10, 0
  %.fca.1.insert = insertvalue { double, double } %.fca.0.insert, double %1, 1
  ret { double, double } %.fca.1.insert
}